target datalayout = "e-m:e-p270:32:32-p271:32:32-p272:64:64-i64:64-i128:128-f80:128-n8:16:32:64-S128"
target triple = "x86_64-pc-linux-gnu"

%class.TypePtr.base = type <{ %class.Type.base, [4 x i8], ptr, i32, i32, i32 }>
%class.Type.base = type <{ ptr, ptr, i32 }>
%class.TypePtr = type <{ %class.Type.base, [4 x i8], ptr, i32, i32, i32, [4 x i8] }>
%class.TypeMetadataPtr = type { %class.TypePtr.base, ptr }

; Function Attrs: mustprogress nounwind uwtable
define hidden noundef i32 @_ZNK7TypePtr16hash_speculativeEv(ptr noundef nonnull align 8 dereferenceable(44) %0) #1 align 2 {
  %2 = alloca i32, align 4
  %3 = alloca ptr, align 8
  store ptr %0, ptr %3, align 8
  %4 = load ptr, ptr %3, align 8
  %5 = getelementptr inbounds %class.TypePtr, ptr %4, i32 0, i32 2
  %6 = load ptr, ptr %5, align 8
  %7 = icmp eq ptr %6, null
  br i1 %7, label %8, label %9

8:                                                ; preds = %1
  store i32 0, ptr %2, align 4
  br label %16

9:                                                ; preds = %1
  %10 = getelementptr inbounds %class.TypePtr, ptr %4, i32 0, i32 2
  %11 = load ptr, ptr %10, align 8
  %12 = load ptr, ptr %11, align 8
  %13 = getelementptr inbounds ptr, ptr %12, i64 10
  %14 = load ptr, ptr %13, align 8
  %15 = call noundef i32 %14(ptr noundef nonnull align 8 dereferenceable(44) %11)
  store i32 %15, ptr %2, align 4
  br label %16

16:                                               ; preds = %9, %8
  %17 = load i32, ptr %2, align 4
  ret i32 %17
}

; Function Attrs: mustprogress nounwind uwtable
define hidden noundef i32 @_ZNK7TypePtr4hashEv(ptr noundef nonnull align 8 dereferenceable(44) %0) unnamed_addr #1 align 2 {
  %2 = alloca ptr, align 8
  store ptr %0, ptr %2, align 8
  %3 = load ptr, ptr %2, align 8
  %4 = getelementptr inbounds %class.TypePtr, ptr %3, i32 0, i32 5
  %5 = load i32, ptr %4, align 8
  %6 = getelementptr inbounds %class.TypePtr, ptr %3, i32 0, i32 4
  %7 = load i32, ptr %6, align 4
  %8 = add i32 %5, %7
  %9 = call noundef i32 @_ZNK7TypePtr16hash_speculativeEv(ptr noundef nonnull align 8 dereferenceable(44) %3)
  %10 = add i32 %8, %9
  %11 = getelementptr inbounds %class.TypePtr, ptr %3, i32 0, i32 3
  %12 = load i32, ptr %11, align 8
  %13 = add i32 %10, %12
  ret i32 %13
}

; Function Attrs: mustprogress nounwind uwtable
define linkonce_odr hidden noundef i32 @_ZN10ciMetadata4hashEv(ptr noundef nonnull align 8 dereferenceable(24) %0) #1 comdat align 2 {
  %2 = alloca ptr, align 8
  store ptr %0, ptr %2, align 8
  %3 = load ptr, ptr %2, align 8
  %4 = call noundef i32 @_ZN12ciBaseObject5identEv(ptr noundef nonnull align 8 dereferenceable(12) %3)
  %5 = mul i32 %4, 31
  ret i32 %5
}

; Function Attrs: mustprogress nounwind uwtable
define linkonce_odr hidden noundef ptr @_ZNK15TypeMetadataPtr8metadataEv(ptr noundef nonnull align 8 dereferenceable(56) %0) #1 comdat align 2 {
  %2 = alloca ptr, align 8
  store ptr %0, ptr %2, align 8
  %3 = load ptr, ptr %2, align 8
  %4 = getelementptr inbounds %class.TypeMetadataPtr, ptr %3, i32 0, i32 1
  %5 = load ptr, ptr %4, align 8
  ret ptr %5
}

; Function Attrs: mustprogress nounwind uwtable
define hidden noundef i32 @_ZNK15TypeMetadataPtr4hashEv(ptr noundef nonnull align 8 dereferenceable(56) %0) unnamed_addr #1 align 2 {
  %2 = alloca ptr, align 8
  store ptr %0, ptr %2, align 8
  %3 = load ptr, ptr %2, align 8
  %4 = call noundef ptr @_ZNK15TypeMetadataPtr8metadataEv(ptr noundef nonnull align 8 dereferenceable(56) %3)
  %5 = icmp ne ptr %4, null
  br i1 %5, label %6, label %9

6:                                                ; preds = %1
  %7 = call noundef ptr @_ZNK15TypeMetadataPtr8metadataEv(ptr noundef nonnull align 8 dereferenceable(56) %3)
  %8 = call noundef i32 @_ZN10ciMetadata4hashEv(ptr noundef nonnull align 8 dereferenceable(24) %7)
  br label %10

9:                                                ; preds = %1
  br label %10

10:                                               ; preds = %9, %6
  %11 = phi i32 [ %8, %6 ], [ 0, %9 ]
  %12 = call noundef i32 @_ZNK7TypePtr4hashEv(ptr noundef nonnull align 8 dereferenceable(44) %3)
  %13 = add i32 %11, %12
  ret i32 %13
}