; Function Attrs: mustprogress nounwind uwtable
define hidden noundef i32 @_ZNK15TypeMetadataPtr4hashEv(ptr nocapture noundef nonnull readonly align 8 dereferenceable(56) %0) unnamed_addr #0 align 2 {
  %2 = getelementptr inbounds i8, ptr %0, i64 48
  %3 = load ptr, ptr %2, align 8
  %.not = icmp eq ptr %3, null
  br i1 %.not, label %7, label %4

4:                                                ; preds = %1
  %5 = tail call noundef i32 @_ZN12ciBaseObject5identEv(ptr noundef nonnull align 8 dereferenceable(12) %3) #17
  %6 = mul i32 %5, 31
  br label %7

7:                                                ; preds = %1, %4
  %8 = phi i32 [ %6, %4 ], [ 0, %1 ]
  %9 = getelementptr inbounds i8, ptr %0, i64 40
  %10 = load i32, ptr %9, align 8
  %11 = getelementptr inbounds i8, ptr %0, i64 36
  %12 = load i32, ptr %11, align 4
  %13 = getelementptr inbounds i8, ptr %0, i64 24
  %14 = load ptr, ptr %13, align 8
  %15 = icmp eq ptr %14, null
  br i1 %15, label %_ZNK7TypePtr4hashEv.exit, label %16

16:                                               ; preds = %7
  %17 = load ptr, ptr %14, align 8
  %18 = getelementptr inbounds i8, ptr %17, i64 80
  %19 = load ptr, ptr %18, align 8
  %20 = tail call noundef i32 %19(ptr noundef nonnull align 8 dereferenceable(44) %14) #17
  br label %_ZNK7TypePtr4hashEv.exit

_ZNK7TypePtr4hashEv.exit:                         ; preds = %7, %16
  %.0.i.i = phi i32 [ %20, %16 ], [ 0, %7 ]
  %21 = getelementptr inbounds i8, ptr %0, i64 32
  %22 = load i32, ptr %21, align 8
  %23 = add i32 %10, %8
  %24 = add i32 %23, %12
  %25 = add i32 %24, %.0.i.i
  %26 = add i32 %25, %22
  ret i32 %26
}